; Function Attrs: nounwind uwtable
define dso_local { ptr, i64 } @_ZThn104_N4node7UDPWrap7OnAllocEm(ptr nocapture noundef readonly %this, i64 noundef %suggested_size) unnamed_addr #12 align 2 {
entry:
  %realm_.i.i = getelementptr inbounds i8, ptr %this, i64 -88
  %0 = load ptr, ptr %realm_.i.i, align 8
  %env_.i.i.i = getelementptr inbounds i8, ptr %0, i64 176
  %1 = load ptr, ptr %env_.i.i.i, align 8
  %call2.i = tail call { ptr, i64 } @_ZN4node11Environment23allocate_managed_bufferEm(ptr noundef nonnull align 8 dereferenceable(2872) %1, i64 noundef %suggested_size) #19
  ret { ptr, i64 } %call2.i
}